target datalayout = "e-m:e-p270:32:32-p271:32:32-p272:64:64-i64:64-i128:128-f80:128-n8:16:32:64-S128"
target triple = "x86_64-pc-linux-gnu"

%"class.gmxapi::CommHandle" = type { ptr }

@_ZTVN6gmxapi18ResourceAssignmentE = unnamed_addr constant { [7 x ptr] } { [7 x ptr] [ptr null, ptr @_ZTIN6gmxapi18ResourceAssignmentE, ptr @_ZN6gmxapi18ResourceAssignmentD1Ev, ptr @_ZN6gmxapi18ResourceAssignmentD0Ev, ptr @__cxa_pure_virtual, ptr @__cxa_pure_virtual, ptr @_ZNK6gmxapi18ResourceAssignment17applyCommunicatorEPNS_10CommHandleE] }, align 8
@_ZTIN6gmxapi18ResourceAssignmentE = constant { ptr, ptr } { ptr getelementptr inbounds (ptr, ptr @_ZTVN10__cxxabiv117__class_type_infoE, i64 2), ptr @_ZTSN6gmxapi18ResourceAssignmentE }, align 8
@_ZTVN10__cxxabiv117__class_type_infoE = external global [0 x ptr]
@_ZTSN6gmxapi18ResourceAssignmentE = constant [30 x i8] c"N6gmxapi18ResourceAssignmentE\00", align 1

@_ZN6gmxapi18ResourceAssignmentD1Ev = unnamed_addr alias void (ptr), ptr @_ZN6gmxapi18ResourceAssignmentD2Ev

; Function Attrs: mustprogress nounwind uwtable
define void @_ZN6gmxapi18ResourceAssignmentD0Ev(ptr noundef nonnull align 8 dereferenceable(8) %0) unnamed_addr #0 align 2 {
  %2 = alloca ptr, align 8
  store ptr %0, ptr %2, align 8, !tbaa !4
  call void @llvm.trap() #2
  unreachable
}

declare void @__cxa_pure_virtual() unnamed_addr

; Function Attrs: mustprogress nounwind uwtable
define void @_ZNK6gmxapi18ResourceAssignment17applyCommunicatorEPNS_10CommHandleE(ptr noundef nonnull align 8 dereferenceable(8) %0, ptr noundef %1) unnamed_addr #0 align 2 {
  %3 = alloca ptr, align 8
  %4 = alloca ptr, align 8
  store ptr %0, ptr %3, align 8, !tbaa !4
  store ptr %1, ptr %4, align 8, !tbaa !9
  %5 = load ptr, ptr %4, align 8, !tbaa !9
  %6 = getelementptr inbounds nuw %"class.gmxapi::CommHandle", ptr %5, i32 0, i32 0
  store ptr null, ptr %6, align 8, !tbaa !11
  ret void
}

; Function Attrs: mustprogress nounwind uwtable
define void @_ZN6gmxapi18ResourceAssignmentD2Ev(ptr noundef nonnull align 8 dereferenceable(8) %0) unnamed_addr #0 align 2 {
  %2 = alloca ptr, align 8
  store ptr %0, ptr %2, align 8, !tbaa !4
  ret void
}

; Function Attrs: cold noreturn nounwind memory(inaccessiblemem: write)
declare void @llvm.trap() #1


!llvm.module.flags = !{!0, !1, !2, !3}

!0 = !{i32 1, !"wchar_size", i32 4}
!1 = !{i32 7, !"openmp", i32 51}
!2 = !{i32 8, !"PIC Level", i32 2}
!3 = !{i32 7, !"uwtable", i32 2}
!4 = !{!5, !5, i64 0}
!5 = !{!"p1 _ZTSN6gmxapi18ResourceAssignmentE", !6, i64 0}
!6 = !{!"any pointer", !7, i64 0}
!7 = !{!"omnipotent char", !8, i64 0}
!8 = !{!"Simple C++ TBAA"}
!9 = !{!10, !10, i64 0}
!10 = !{!"p1 _ZTSN6gmxapi10CommHandleE", !6, i64 0}
!11 = !{!12, !13, i64 0}
!12 = !{!"_ZTSN6gmxapi10CommHandleE", !13, i64 0}
!13 = !{!"p1 _ZTS10tmpi_comm_", !6, i64 0}
