; ModuleID = 'bench/gromacs/original/resourceassignment.ll'
source_filename = "bench/gromacs/original/resourceassignment.ll"
target datalayout = "e-m:e-p270:32:32-p271:32:32-p272:64:64-i64:64-i128:128-f80:128-n8:16:32:64-S128"
target triple = "x86_64-pc-linux-gnu"

@_ZTVN6gmxapi18ResourceAssignmentE = unnamed_addr constant { [7 x ptr] } { [7 x ptr] [ptr null, ptr @_ZTIN6gmxapi18ResourceAssignmentE, ptr @_ZN6gmxapi18ResourceAssignmentD1Ev, ptr @_ZN6gmxapi18ResourceAssignmentD0Ev, ptr @__cxa_pure_virtual, ptr @__cxa_pure_virtual, ptr @_ZNK6gmxapi18ResourceAssignment17applyCommunicatorEPNS_10CommHandleE] }, align 8
@_ZTIN6gmxapi18ResourceAssignmentE = constant { ptr, ptr } { ptr getelementptr inbounds (ptr, ptr @_ZTVN10__cxxabiv117__class_type_infoE, i64 2), ptr @_ZTSN6gmxapi18ResourceAssignmentE }, align 8
@_ZTVN10__cxxabiv117__class_type_infoE = external global [0 x ptr]
@_ZTSN6gmxapi18ResourceAssignmentE = constant [30 x i8] c"N6gmxapi18ResourceAssignmentE\00", align 1

@_ZN6gmxapi18ResourceAssignmentD1Ev = unnamed_addr alias void (ptr), ptr @_ZN6gmxapi18ResourceAssignmentD2Ev

; Function Attrs: cold mustprogress noreturn nounwind memory(inaccessiblemem: write) uwtable
define void @_ZN6gmxapi18ResourceAssignmentD0Ev(ptr nonnull readnone align 8 captures(none) %0) unnamed_addr #0 align 2 {
  tail call void @llvm.trap() #4
  unreachable
}

declare void @__cxa_pure_virtual() unnamed_addr

; Function Attrs: mustprogress nofree norecurse nosync nounwind willreturn memory(argmem: write) uwtable
define void @_ZNK6gmxapi18ResourceAssignment17applyCommunicatorEPNS_10CommHandleE(ptr nonnull readnone align 8 captures(none) %0, ptr noundef writeonly captures(none) initializes((0, 8)) %1) unnamed_addr #1 align 2 {
  store ptr null, ptr %1, align 8, !tbaa !4
  ret void
}

; Function Attrs: mustprogress nofree norecurse nosync nounwind willreturn memory(none) uwtable
define void @_ZN6gmxapi18ResourceAssignmentD2Ev(ptr nonnull readnone align 8 captures(none) %0) unnamed_addr #2 align 2 {
  ret void
}

; Function Attrs: cold noreturn nounwind memory(inaccessiblemem: write)
declare void @llvm.trap() #3


!llvm.module.flags = !{!0, !1, !2, !3}

!0 = !{i32 1, !"wchar_size", i32 4}
!1 = !{i32 7, !"openmp", i32 51}
!2 = !{i32 8, !"PIC Level", i32 2}
!3 = !{i32 7, !"uwtable", i32 2}
!4 = !{!5, !6, i64 0}
!5 = !{!"_ZTSN6gmxapi10CommHandleE", !6, i64 0}
!6 = !{!"p1 _ZTS10tmpi_comm_", !7, i64 0}
!7 = !{!"any pointer", !8, i64 0}
!8 = !{!"omnipotent char", !9, i64 0}
!9 = !{!"Simple C++ TBAA"}
